; Function Attrs: nounwind uwtable
define dso_local void @advise(ptr noundef %0, ...) local_unnamed_addr #0 {
  %2 = alloca [1 x %struct.__va_list_tag], align 16
  call void @llvm.lifetime.start.p0(i64 24, ptr nonnull %2) #12
  call void @llvm.va_start.p0(ptr nonnull %2)
  call fastcc void @vadvise(ptr noundef %0, i32 noundef 0, ptr noundef nonnull @.str, ptr noundef %2)
  call void @llvm.va_end.p0(ptr nonnull %2)
  call void @llvm.lifetime.end.p0(i64 24, ptr nonnull %2) #12
  ret void
}